target datalayout = "e-m:e-p270:32:32-p271:32:32-p272:64:64-i64:64-i128:128-f80:128-n8:16:32:64-S128"
target triple = "x86_64-pc-linux-gnu"

%struct.xorkey_st = type { [32 x i8], [32 x i8], i32, i32, ptr, %struct.CRYPTO_REF_COUNT }
%struct.CRYPTO_REF_COUNT = type { i32 }

@.str.2 = private unnamed_addr constant [31 x i8] c"../openssl/test/tls-provider.c\00", align 1

; Function Attrs: inlinehint nounwind uwtable
define internal void @CRYPTO_FREE_REF(ptr noundef %0) #3 {
  %2 = alloca ptr, align 8
  store ptr %0, ptr %2, align 8, !tbaa !13
  ret void
}

; Function Attrs: inlinehint nounwind uwtable
define internal i32 @CRYPTO_DOWN_REF(ptr noundef %0, ptr noundef %1) #3 {
  %3 = alloca ptr, align 8
  %4 = alloca ptr, align 8
  %5 = alloca i32, align 4
  %6 = alloca i32, align 4
  store ptr %0, ptr %3, align 8, !tbaa !13
  store ptr %1, ptr %4, align 8, !tbaa !33
  %7 = load ptr, ptr %3, align 8, !tbaa !13
  %8 = getelementptr inbounds nuw %struct.CRYPTO_REF_COUNT, ptr %7, i32 0, i32 0
  store i32 1, ptr %5, align 4, !tbaa !27
  %9 = load i32, ptr %5, align 4
  %10 = atomicrmw sub ptr %8, i32 %9 release, align 4
  store i32 %10, ptr %6, align 4
  %11 = load i32, ptr %6, align 4, !tbaa !27
  %12 = sub nsw i32 %11, 1
  %13 = load ptr, ptr %4, align 8, !tbaa !33
  store i32 %12, ptr %13, align 4, !tbaa !27
  %14 = load ptr, ptr %4, align 8, !tbaa !33
  %15 = load i32, ptr %14, align 4, !tbaa !27
  %16 = icmp eq i32 %15, 0
  br i1 %16, label %17, label %18

17:                                               ; preds = %2
  fence acquire
  br label %18

18:                                               ; preds = %17, %2
  ret i32 1
}

; Function Attrs: inlinehint nounwind uwtable
define internal i32 @CRYPTO_NEW_REF(ptr noundef %0, i32 noundef %1) #3 {
  %3 = alloca ptr, align 8
  %4 = alloca i32, align 4
  store ptr %0, ptr %3, align 8, !tbaa !13
  store i32 %1, ptr %4, align 4, !tbaa !27
  %5 = load i32, ptr %4, align 4, !tbaa !27
  %6 = load ptr, ptr %3, align 8, !tbaa !13
  %7 = getelementptr inbounds nuw %struct.CRYPTO_REF_COUNT, ptr %6, i32 0, i32 0
  store atomic i32 %5, ptr %7 seq_cst, align 4, !tbaa !61
  ret i32 1
}

; Function Attrs: nounwind uwtable
define internal void @xor_freekey(ptr noundef %0) #0 {
  %2 = alloca ptr, align 8
  %3 = alloca ptr, align 8
  %4 = alloca i32, align 4
  %5 = alloca i32, align 4
  store ptr %0, ptr %2, align 8, !tbaa !13
  call void @llvm.lifetime.start.p0(i64 8, ptr %3) #8
  %6 = load ptr, ptr %2, align 8, !tbaa !13
  store ptr %6, ptr %3, align 8, !tbaa !41
  call void @llvm.lifetime.start.p0(i64 4, ptr %4) #8
  %7 = load ptr, ptr %3, align 8, !tbaa !41
  %8 = icmp eq ptr %7, null
  br i1 %8, label %9, label %10

9:                                                ; preds = %1
  store i32 1, ptr %5, align 4
  br label %33

10:                                               ; preds = %1
  %11 = load ptr, ptr %3, align 8, !tbaa !41
  %12 = getelementptr inbounds nuw %struct.xorkey_st, ptr %11, i32 0, i32 5
  %13 = call i32 @CRYPTO_DOWN_REF(ptr noundef %12, ptr noundef %4)
  %14 = icmp sle i32 %13, 0
  br i1 %14, label %15, label %16

15:                                               ; preds = %10
  store i32 1, ptr %5, align 4
  br label %33

16:                                               ; preds = %10
  %17 = load i32, ptr %4, align 4, !tbaa !27
  %18 = icmp sgt i32 %17, 0
  br i1 %18, label %19, label %20

19:                                               ; preds = %16
  store i32 1, ptr %5, align 4
  br label %33

20:                                               ; preds = %16
  %21 = load ptr, ptr %3, align 8, !tbaa !41
  %22 = icmp ne ptr %21, null
  br i1 %22, label %23, label %29

23:                                               ; preds = %20
  %24 = load ptr, ptr %3, align 8, !tbaa !41
  %25 = getelementptr inbounds nuw %struct.xorkey_st, ptr %24, i32 0, i32 4
  %26 = load ptr, ptr %25, align 8, !tbaa !59
  call void @CRYPTO_free(ptr noundef %26, ptr noundef @.str.2, i32 noundef 720)
  %27 = load ptr, ptr %3, align 8, !tbaa !41
  %28 = getelementptr inbounds nuw %struct.xorkey_st, ptr %27, i32 0, i32 4
  store ptr null, ptr %28, align 8, !tbaa !59
  br label %29

29:                                               ; preds = %23, %20
  %30 = load ptr, ptr %3, align 8, !tbaa !41
  %31 = getelementptr inbounds nuw %struct.xorkey_st, ptr %30, i32 0, i32 5
  call void @CRYPTO_FREE_REF(ptr noundef %31)
  %32 = load ptr, ptr %3, align 8, !tbaa !41
  call void @CRYPTO_free(ptr noundef %32, ptr noundef @.str.2, i32 noundef 724)
  store i32 0, ptr %5, align 4
  br label %33

33:                                               ; preds = %29, %19, %15, %9
  call void @llvm.lifetime.end.p0(i64 4, ptr %4) #8
  call void @llvm.lifetime.end.p0(i64 8, ptr %3) #8
  %34 = load i32, ptr %5, align 4
  switch i32 %34, label %36 [
    i32 0, label %35
    i32 1, label %35
  ]

35:                                               ; preds = %33, %33
  ret void

36:                                               ; preds = %33
  unreachable
}

; Function Attrs: nounwind uwtable
define internal ptr @xor_newkey(ptr noundef %0) #0 {
  %2 = alloca ptr, align 8
  %3 = alloca ptr, align 8
  %4 = alloca ptr, align 8
  %5 = alloca i32, align 4
  store ptr %0, ptr %3, align 8, !tbaa !13
  call void @llvm.lifetime.start.p0(i64 8, ptr %4) #8
  %6 = call noalias ptr @CRYPTO_zalloc(i64 noundef 88, ptr noundef @.str.2, i32 noundef 691)
  store ptr %6, ptr %4, align 8, !tbaa !41
  %7 = load ptr, ptr %4, align 8, !tbaa !41
  %8 = icmp eq ptr %7, null
  br i1 %8, label %9, label %10

9:                                                ; preds = %1
  store ptr null, ptr %2, align 8
  store i32 1, ptr %5, align 4
  br label %19

10:                                               ; preds = %1
  %11 = load ptr, ptr %4, align 8, !tbaa !41
  %12 = getelementptr inbounds nuw %struct.xorkey_st, ptr %11, i32 0, i32 5
  %13 = call i32 @CRYPTO_NEW_REF(ptr noundef %12, i32 noundef 1)
  %14 = icmp ne i32 %13, 0
  br i1 %14, label %17, label %15

15:                                               ; preds = %10
  %16 = load ptr, ptr %4, align 8, !tbaa !41
  call void @CRYPTO_free(ptr noundef %16, ptr noundef @.str.2, i32 noundef 697)
  store ptr null, ptr %2, align 8
  store i32 1, ptr %5, align 4
  br label %19

17:                                               ; preds = %10
  %18 = load ptr, ptr %4, align 8, !tbaa !41
  store ptr %18, ptr %2, align 8
  store i32 1, ptr %5, align 4
  br label %19

19:                                               ; preds = %17, %15, %9
  call void @llvm.lifetime.end.p0(i64 8, ptr %4) #8
  %20 = load ptr, ptr %2, align 8
  ret ptr %20
}

; Function Attrs: nounwind uwtable
define internal ptr @xor_dup(ptr noundef %0, i32 noundef %1) #0 {
  %3 = alloca ptr, align 8
  %4 = alloca i32, align 4
  %5 = alloca ptr, align 8
  %6 = alloca ptr, align 8
  %7 = alloca i32, align 4
  store ptr %0, ptr %3, align 8, !tbaa !13
  store i32 %1, ptr %4, align 4, !tbaa !27
  call void @llvm.lifetime.start.p0(i64 8, ptr %5) #8
  %8 = call ptr @xor_newkey(ptr noundef null)
  store ptr %8, ptr %5, align 8, !tbaa !41
  call void @llvm.lifetime.start.p0(i64 8, ptr %6) #8
  %9 = load ptr, ptr %3, align 8, !tbaa !13
  store ptr %9, ptr %6, align 8, !tbaa !41
  call void @llvm.lifetime.start.p0(i64 4, ptr %7) #8
  store i32 0, ptr %7, align 4, !tbaa !27
  %10 = load ptr, ptr %5, align 8, !tbaa !41
  %11 = icmp ne ptr %10, null
  br i1 %11, label %12, label %72

12:                                               ; preds = %2
  %13 = load ptr, ptr %6, align 8, !tbaa !41
  %14 = icmp ne ptr %13, null
  br i1 %14, label %15, label %72

15:                                               ; preds = %12
  store i32 1, ptr %7, align 4, !tbaa !27
  %16 = load i32, ptr %4, align 4, !tbaa !27
  %17 = and i32 %16, 2
  %18 = icmp ne i32 %17, 0
  br i1 %18, label %19, label %37

19:                                               ; preds = %15
  %20 = load ptr, ptr %6, align 8, !tbaa !41
  %21 = getelementptr inbounds nuw %struct.xorkey_st, ptr %20, i32 0, i32 3
  %22 = load i32, ptr %21, align 4, !tbaa !56
  %23 = icmp ne i32 %22, 0
  br i1 %23, label %24, label %33

24:                                               ; preds = %19
  %25 = load ptr, ptr %5, align 8, !tbaa !41
  %26 = getelementptr inbounds nuw %struct.xorkey_st, ptr %25, i32 0, i32 1
  %27 = getelementptr inbounds [32 x i8], ptr %26, i64 0, i64 0
  %28 = load ptr, ptr %6, align 8, !tbaa !41
  %29 = getelementptr inbounds nuw %struct.xorkey_st, ptr %28, i32 0, i32 1
  %30 = getelementptr inbounds [32 x i8], ptr %29, i64 0, i64 0
  call void @llvm.memcpy.p0.p0.i64(ptr align 8 %27, ptr align 8 %30, i64 32, i1 false)
  %31 = load ptr, ptr %5, align 8, !tbaa !41
  %32 = getelementptr inbounds nuw %struct.xorkey_st, ptr %31, i32 0, i32 3
  store i32 1, ptr %32, align 4, !tbaa !56
  br label %36

33:                                               ; preds = %19
  %34 = load ptr, ptr %5, align 8, !tbaa !41
  %35 = getelementptr inbounds nuw %struct.xorkey_st, ptr %34, i32 0, i32 3
  store i32 0, ptr %35, align 4, !tbaa !56
  br label %36

36:                                               ; preds = %33, %24
  br label %37

37:                                               ; preds = %36, %15
  %38 = load i32, ptr %4, align 4, !tbaa !27
  %39 = and i32 %38, 1
  %40 = icmp ne i32 %39, 0
  br i1 %40, label %41, label %59

41:                                               ; preds = %37
  %42 = load ptr, ptr %6, align 8, !tbaa !41
  %43 = getelementptr inbounds nuw %struct.xorkey_st, ptr %42, i32 0, i32 2
  %44 = load i32, ptr %43, align 8, !tbaa !53
  %45 = icmp ne i32 %44, 0
  br i1 %45, label %46, label %55

46:                                               ; preds = %41
  %47 = load ptr, ptr %5, align 8, !tbaa !41
  %48 = getelementptr inbounds nuw %struct.xorkey_st, ptr %47, i32 0, i32 0
  %49 = getelementptr inbounds [32 x i8], ptr %48, i64 0, i64 0
  %50 = load ptr, ptr %6, align 8, !tbaa !41
  %51 = getelementptr inbounds nuw %struct.xorkey_st, ptr %50, i32 0, i32 0
  %52 = getelementptr inbounds [32 x i8], ptr %51, i64 0, i64 0
  call void @llvm.memcpy.p0.p0.i64(ptr align 8 %49, ptr align 8 %52, i64 32, i1 false)
  %53 = load ptr, ptr %5, align 8, !tbaa !41
  %54 = getelementptr inbounds nuw %struct.xorkey_st, ptr %53, i32 0, i32 2
  store i32 1, ptr %54, align 8, !tbaa !53
  br label %58

55:                                               ; preds = %41
  %56 = load ptr, ptr %5, align 8, !tbaa !41
  %57 = getelementptr inbounds nuw %struct.xorkey_st, ptr %56, i32 0, i32 2
  store i32 0, ptr %57, align 8, !tbaa !53
  br label %58

58:                                               ; preds = %55, %46
  br label %59

59:                                               ; preds = %58, %37
  %60 = load ptr, ptr %6, align 8, !tbaa !41
  %61 = getelementptr inbounds nuw %struct.xorkey_st, ptr %60, i32 0, i32 4
  %62 = load ptr, ptr %61, align 8, !tbaa !59
  %63 = icmp ne ptr %62, null
  br i1 %63, label %64, label %71

64:                                               ; preds = %59
  %65 = load ptr, ptr %6, align 8, !tbaa !41
  %66 = getelementptr inbounds nuw %struct.xorkey_st, ptr %65, i32 0, i32 4
  %67 = load ptr, ptr %66, align 8, !tbaa !59
  %68 = call noalias ptr @CRYPTO_strdup(ptr noundef %67, ptr noundef @.str.2, i32 noundef 780)
  %69 = load ptr, ptr %5, align 8, !tbaa !41
  %70 = getelementptr inbounds nuw %struct.xorkey_st, ptr %69, i32 0, i32 4
  store ptr %68, ptr %70, align 8, !tbaa !59
  br label %71

71:                                               ; preds = %64, %59
  br label %72

72:                                               ; preds = %71, %12, %2
  %73 = load i32, ptr %7, align 4, !tbaa !27
  %74 = icmp ne i32 %73, 0
  br i1 %74, label %77, label %75

75:                                               ; preds = %72
  %76 = load ptr, ptr %5, align 8, !tbaa !41
  call void @xor_freekey(ptr noundef %76)
  store ptr null, ptr %5, align 8, !tbaa !41
  br label %77

77:                                               ; preds = %75, %72
  %78 = load ptr, ptr %5, align 8, !tbaa !41
  call void @llvm.lifetime.end.p0(i64 4, ptr %7) #8
  call void @llvm.lifetime.end.p0(i64 8, ptr %6) #8
  call void @llvm.lifetime.end.p0(i64 8, ptr %5) #8
  ret ptr %78
}