; Function Attrs: nounwind uwtable
define internal ptr @xor_dup(ptr noundef readonly captures(address_is_null) %0, i32 noundef %1) #0 {
  %3 = tail call noalias ptr @CRYPTO_zalloc(i64 noundef 88, ptr noundef nonnull @.str.2, i32 noundef 691) #16
  %4 = icmp eq ptr %3, null
  br i1 %4, label %xor_freekey.exit, label %xor_newkey.exit

xor_newkey.exit:                                  ; preds = %2
  %5 = getelementptr inbounds nuw i8, ptr %3, i64 80
  store atomic i32 1, ptr %5 seq_cst, align 4, !tbaa !33
  %6 = icmp eq ptr %0, null
  br i1 %6, label %.critedge, label %7

7:                                                ; preds = %xor_newkey.exit
  %8 = and i32 %1, 2
  %.not = icmp eq i32 %8, 0
  br i1 %.not, label %16, label %9

9:                                                ; preds = %7
  %10 = getelementptr inbounds nuw i8, ptr %0, i64 68
  %11 = load i32, ptr %10, align 4, !tbaa !43
  %.not25 = icmp eq i32 %11, 0
  br i1 %.not25, label %.sink.split, label %12

12:                                               ; preds = %9
  %13 = getelementptr inbounds nuw i8, ptr %3, i64 32
  %14 = getelementptr inbounds nuw i8, ptr %0, i64 32
  tail call void @llvm.memcpy.p0.p0.i64(ptr noundef nonnull align 8 dereferenceable(32) %13, ptr noundef nonnull align 8 dereferenceable(32) %14, i64 32, i1 false)
  br label %.sink.split

.sink.split:                                      ; preds = %9, %12
  %.sink = phi i32 [ 1, %12 ], [ 0, %9 ]
  %15 = getelementptr inbounds nuw i8, ptr %3, i64 68
  store i32 %.sink, ptr %15, align 4, !tbaa !43
  br label %16

16:                                               ; preds = %.sink.split, %7
  %17 = and i32 %1, 1
  %.not26 = icmp eq i32 %17, 0
  br i1 %.not26, label %23, label %18

18:                                               ; preds = %16
  %19 = getelementptr inbounds nuw i8, ptr %0, i64 64
  %20 = load i32, ptr %19, align 8, !tbaa !41
  %.not27 = icmp eq i32 %20, 0
  br i1 %.not27, label %.sink.split34, label %21

21:                                               ; preds = %18
  tail call void @llvm.memcpy.p0.p0.i64(ptr noundef nonnull align 8 dereferenceable(32) %3, ptr noundef nonnull align 8 dereferenceable(32) %0, i64 32, i1 false)
  br label %.sink.split34

.sink.split34:                                    ; preds = %18, %21
  %.sink35 = phi i32 [ 1, %21 ], [ 0, %18 ]
  %22 = getelementptr inbounds nuw i8, ptr %3, i64 64
  store i32 %.sink35, ptr %22, align 8, !tbaa !41
  br label %23

23:                                               ; preds = %.sink.split34, %16
  %24 = getelementptr inbounds nuw i8, ptr %0, i64 72
  %25 = load ptr, ptr %24, align 8, !tbaa !46
  %.not28 = icmp eq ptr %25, null
  br i1 %.not28, label %xor_freekey.exit, label %26

26:                                               ; preds = %23
  %27 = tail call noalias ptr @CRYPTO_strdup(ptr noundef nonnull %25, ptr noundef nonnull @.str.2, i32 noundef 780) #16
  %28 = getelementptr inbounds nuw i8, ptr %3, i64 72
  store ptr %27, ptr %28, align 8, !tbaa !46
  br label %xor_freekey.exit

.critedge:                                        ; preds = %xor_newkey.exit
  %29 = atomicrmw sub ptr %5, i32 1 release, align 4
  %30 = icmp eq i32 %29, 1
  br i1 %30, label %CRYPTO_DOWN_REF.exit.thread.i, label %CRYPTO_DOWN_REF.exit.i

CRYPTO_DOWN_REF.exit.thread.i:                    ; preds = %.critedge
  fence acquire
  br label %32

CRYPTO_DOWN_REF.exit.i:                           ; preds = %.critedge
  %31 = icmp sgt i32 %29, 1
  br i1 %31, label %xor_freekey.exit, label %32

32:                                               ; preds = %CRYPTO_DOWN_REF.exit.i, %CRYPTO_DOWN_REF.exit.thread.i
  %33 = getelementptr inbounds nuw i8, ptr %3, i64 72
  %34 = load ptr, ptr %33, align 8, !tbaa !46
  tail call void @CRYPTO_free(ptr noundef %34, ptr noundef nonnull @.str.2, i32 noundef 720) #16
  store ptr null, ptr %33, align 8, !tbaa !46
  tail call void @CRYPTO_free(ptr noundef nonnull %3, ptr noundef nonnull @.str.2, i32 noundef 724) #16
  br label %xor_freekey.exit

xor_freekey.exit:                                 ; preds = %2, %32, %CRYPTO_DOWN_REF.exit.i, %26, %23
  %.021 = phi ptr [ %3, %23 ], [ %3, %26 ], [ null, %CRYPTO_DOWN_REF.exit.i ], [ null, %32 ], [ null, %2 ]
  ret ptr %.021
}